#include <math.h>
#include <stdio.h>
#include <stdlib.h>
#include <string.h>

 

void main()
{
	int i,j;

	char *str;
	str=(char*)malloc(100*sizeof(char));
	char *p;
	p=str;
	gets(str);
	for(p=str,i=0;p<str+strlen(str)/*&&(!(*(p-1)==' '&&*(p)==' '))*/;p++,i++)
	{	if(*(p-1)==' '&&*(p)==' ')
		{
			for(j=i-1;j<strlen(str);j++)	
				*(str+j)=*(str+j+1);
			//*(str+strlen(str)-1)=' ';
			i--;
		  p=str+i;	
			//printf("%c",*p);

		}
	}
		puts(str);

}
