; ModuleID = '62/592.c'
source_filename = "62/592.c"
target datalayout = "e-m:e-p270:32:32-p271:32:32-p272:64:64-i64:64-f80:128-n8:16:32:64-S128"
target triple = "x86_64-pc-linux-gnu"

; Function Attrs: noinline nounwind uwtable
define dso_local void @main() #0 {
  %1 = alloca i32, align 4
  %2 = alloca i32, align 4
  %3 = alloca i8*, align 8
  %4 = alloca i8*, align 8
  %5 = call noalias i8* @malloc(i64 100) #4
  store i8* %5, i8** %3, align 8
  %6 = load i8*, i8** %3, align 8
  store i8* %6, i8** %4, align 8
  %7 = load i8*, i8** %3, align 8
  %8 = call i32 (i8*, ...) bitcast (i32 (...)* @gets to i32 (i8*, ...)*)(i8* %7)
  %9 = load i8*, i8** %3, align 8
  store i8* %9, i8** %4, align 8
  store i32 0, i32* %1, align 4
  br label %10

10:                                               ; preds = %59, %0
  %11 = load i8*, i8** %4, align 8
  %12 = load i8*, i8** %3, align 8
  %13 = load i8*, i8** %3, align 8
  %14 = call i64 @strlen(i8* %13) #5
  %15 = getelementptr inbounds i8, i8* %12, i64 %14
  %16 = icmp ult i8* %11, %15
  br i1 %16, label %17, label %64

17:                                               ; preds = %10
  %18 = load i8*, i8** %4, align 8
  %19 = getelementptr inbounds i8, i8* %18, i64 -1
  %20 = load i8, i8* %19, align 1
  %21 = sext i8 %20 to i32
  %22 = icmp eq i32 %21, 32
  br i1 %22, label %23, label %58

23:                                               ; preds = %17
  %24 = load i8*, i8** %4, align 8
  %25 = load i8, i8* %24, align 1
  %26 = sext i8 %25 to i32
  %27 = icmp eq i32 %26, 32
  br i1 %27, label %28, label %58

28:                                               ; preds = %23
  %29 = load i32, i32* %1, align 4
  %30 = sub nsw i32 %29, 1
  store i32 %30, i32* %2, align 4
  br label %31

31:                                               ; preds = %48, %28
  %32 = load i32, i32* %2, align 4
  %33 = sext i32 %32 to i64
  %34 = load i8*, i8** %3, align 8
  %35 = call i64 @strlen(i8* %34) #5
  %36 = icmp ult i64 %33, %35
  br i1 %36, label %37, label %51

37:                                               ; preds = %31
  %38 = load i8*, i8** %3, align 8
  %39 = load i32, i32* %2, align 4
  %40 = sext i32 %39 to i64
  %41 = getelementptr inbounds i8, i8* %38, i64 %40
  %42 = getelementptr inbounds i8, i8* %41, i64 1
  %43 = load i8, i8* %42, align 1
  %44 = load i8*, i8** %3, align 8
  %45 = load i32, i32* %2, align 4
  %46 = sext i32 %45 to i64
  %47 = getelementptr inbounds i8, i8* %44, i64 %46
  store i8 %43, i8* %47, align 1
  br label %48

48:                                               ; preds = %37
  %49 = load i32, i32* %2, align 4
  %50 = add nsw i32 %49, 1
  store i32 %50, i32* %2, align 4
  br label %31

51:                                               ; preds = %31
  %52 = load i32, i32* %1, align 4
  %53 = add nsw i32 %52, -1
  store i32 %53, i32* %1, align 4
  %54 = load i8*, i8** %3, align 8
  %55 = load i32, i32* %1, align 4
  %56 = sext i32 %55 to i64
  %57 = getelementptr inbounds i8, i8* %54, i64 %56
  store i8* %57, i8** %4, align 8
  br label %58

58:                                               ; preds = %51, %23, %17
  br label %59

59:                                               ; preds = %58
  %60 = load i8*, i8** %4, align 8
  %61 = getelementptr inbounds i8, i8* %60, i32 1
  store i8* %61, i8** %4, align 8
  %62 = load i32, i32* %1, align 4
  %63 = add nsw i32 %62, 1
  store i32 %63, i32* %1, align 4
  br label %10

64:                                               ; preds = %10
  %65 = load i8*, i8** %3, align 8
  %66 = call i32 @puts(i8* %65)
  ret void
}

; Function Attrs: nounwind
declare dso_local noalias i8* @malloc(i64) #1

declare dso_local i32 @gets(...) #2

; Function Attrs: nounwind readonly
declare dso_local i64 @strlen(i8*) #3

declare dso_local i32 @puts(i8*) #2


!llvm.module.flags = !{!0}
!llvm.ident = !{!1}

!0 = !{i32 1, !"wchar_size", i32 4}
!1 = !{!"clang version 10.0.0-4ubuntu1 "}
